target datalayout = "e-m:e-p270:32:32-p271:32:32-p272:64:64-i64:64-i128:128-f80:128-n8:16:32:64-S128"
target triple = "x86_64-pc-linux-gnu"

%struct.RelationData = type { %struct.RelFileLocator, ptr, i32, i32, i8, i8, i8, i8, i8, i32, i32, i32, i32, ptr, ptr, i32, %struct.LockInfoData, ptr, ptr, ptr, ptr, ptr, i8, ptr, ptr, ptr, ptr, ptr, ptr, i32, ptr, i8, ptr, ptr, i32, i8, i32, ptr, i8, ptr, ptr, ptr, ptr, ptr, ptr, ptr, i32, ptr, ptr, ptr, ptr, ptr, ptr, ptr, ptr, ptr, ptr, ptr, ptr, ptr, ptr, ptr, ptr, ptr, ptr, ptr, i32, i8, ptr }
%struct.RelFileLocator = type { i32, i32, i32 }
%struct.LockInfoData = type { %struct.LockRelId }
%struct.LockRelId = type { i32, i32 }
%struct.FormData_pg_class = type { i32, %struct.nameData, i32, i32, i32, i32, i32, i32, i32, i32, float, i32, i32, i8, i8, i8, i8, i16, i16, i8, i8, i8, i8, i8, i8, i8, i8, i32, i32, i32 }
%struct.nameData = type { [64 x i8] }
%struct.TupleDescData = type { i32, i32, i32, i32, ptr, [0 x %struct.CompactAttribute] }
%struct.CompactAttribute = type { i32, i16, i8, i8, i8, i8, i8, i8, i8 }
%struct.FormData_pg_attribute = type { i32, %struct.nameData, i32, i16, i16, i32, i16, i8, i8, i8, i8, i8, i8, i8, i8, i8, i8, i8, i16, i32 }

; Function Attrs: inlinehint nounwind uwtable
define internal ptr @TupleDescAttr(ptr noundef %0, i32 noundef %1) #4 {
  %3 = alloca ptr, align 8
  %4 = alloca i32, align 4
  %5 = alloca ptr, align 8
  store ptr %0, ptr %3, align 8
  store i32 %1, ptr %4, align 4
  call void @llvm.lifetime.start.p0(i64 8, ptr %5) #10
  %6 = load ptr, ptr %3, align 8
  %7 = load ptr, ptr %3, align 8
  %8 = getelementptr inbounds nuw %struct.TupleDescData, ptr %7, i32 0, i32 0
  %9 = load i32, ptr %8, align 8
  %10 = sext i32 %9 to i64
  %11 = mul i64 %10, 16
  %12 = add i64 24, %11
  %13 = getelementptr inbounds nuw i8, ptr %6, i64 %12
  store ptr %13, ptr %5, align 8
  %14 = load ptr, ptr %5, align 8
  %15 = load i32, ptr %4, align 4
  %16 = sext i32 %15 to i64
  %17 = getelementptr inbounds %struct.FormData_pg_attribute, ptr %14, i64 %16
  call void @llvm.lifetime.end.p0(i64 8, ptr %5) #10
  ret ptr %17
}

; Function Attrs: nounwind uwtable
define dso_local i32 @get_rel_data_width(ptr noundef %0, ptr noundef %1) #0 {
  %3 = alloca ptr, align 8
  %4 = alloca ptr, align 8
  %5 = alloca i64, align 8
  %6 = alloca i32, align 4
  %7 = alloca ptr, align 8
  %8 = alloca i32, align 4
  %9 = alloca i32, align 4
  store ptr %0, ptr %3, align 8
  store ptr %1, ptr %4, align 8
  call void @llvm.lifetime.start.p0(i64 8, ptr %5) #10
  store i64 0, ptr %5, align 8
  call void @llvm.lifetime.start.p0(i64 4, ptr %6) #10
  store i32 1, ptr %6, align 4
  br label %10

10:                                               ; preds = %84, %2
  %11 = load i32, ptr %6, align 4
  %12 = load ptr, ptr %3, align 8
  %13 = getelementptr inbounds nuw %struct.RelationData, ptr %12, i32 0, i32 13
  %14 = load ptr, ptr %13, align 8
  %15 = getelementptr inbounds nuw %struct.FormData_pg_class, ptr %14, i32 0, i32 17
  %16 = load i16, ptr %15, align 4
  %17 = sext i16 %16 to i32
  %18 = icmp sle i32 %11, %17
  br i1 %18, label %19, label %87

19:                                               ; preds = %10
  call void @llvm.lifetime.start.p0(i64 8, ptr %7) #10
  %20 = load ptr, ptr %3, align 8
  %21 = getelementptr inbounds nuw %struct.RelationData, ptr %20, i32 0, i32 14
  %22 = load ptr, ptr %21, align 8
  %23 = load i32, ptr %6, align 4
  %24 = sub i32 %23, 1
  %25 = call ptr @TupleDescAttr(ptr noundef %22, i32 noundef %24)
  store ptr %25, ptr %7, align 8
  call void @llvm.lifetime.start.p0(i64 4, ptr %8) #10
  %26 = load ptr, ptr %7, align 8
  %27 = getelementptr inbounds nuw %struct.FormData_pg_attribute, ptr %26, i32 0, i32 16
  %28 = load i8, ptr %27, align 1, !range !4, !noundef !5
  %29 = trunc i8 %28 to i1
  br i1 %29, label %30, label %31

30:                                               ; preds = %19
  store i32 4, ptr %9, align 4
  br label %81

31:                                               ; preds = %19
  %32 = load ptr, ptr %4, align 8
  %33 = icmp ne ptr %32, null
  br i1 %33, label %34, label %50

34:                                               ; preds = %31
  %35 = load ptr, ptr %4, align 8
  %36 = load i32, ptr %6, align 4
  %37 = sext i32 %36 to i64
  %38 = getelementptr inbounds i32, ptr %35, i64 %37
  %39 = load i32, ptr %38, align 4
  %40 = icmp sgt i32 %39, 0
  br i1 %40, label %41, label %50

41:                                               ; preds = %34
  %42 = load ptr, ptr %4, align 8
  %43 = load i32, ptr %6, align 4
  %44 = sext i32 %43 to i64
  %45 = getelementptr inbounds i32, ptr %42, i64 %44
  %46 = load i32, ptr %45, align 4
  %47 = sext i32 %46 to i64
  %48 = load i64, ptr %5, align 8
  %49 = add i64 %48, %47
  store i64 %49, ptr %5, align 8
  store i32 4, ptr %9, align 4
  br label %81

50:                                               ; preds = %34, %31
  %51 = load ptr, ptr %3, align 8
  %52 = getelementptr inbounds nuw %struct.RelationData, ptr %51, i32 0, i32 15
  %53 = load i32, ptr %52, align 8
  %54 = load i32, ptr %6, align 4
  %55 = trunc i32 %54 to i16
  %56 = call i32 @get_attavgwidth(i32 noundef %53, i16 noundef signext %55)
  store i32 %56, ptr %8, align 4
  %57 = load i32, ptr %8, align 4
  %58 = icmp sle i32 %57, 0
  br i1 %58, label %59, label %67

59:                                               ; preds = %50
  %60 = load ptr, ptr %7, align 8
  %61 = getelementptr inbounds nuw %struct.FormData_pg_attribute, ptr %60, i32 0, i32 2
  %62 = load i32, ptr %61, align 4
  %63 = load ptr, ptr %7, align 8
  %64 = getelementptr inbounds nuw %struct.FormData_pg_attribute, ptr %63, i32 0, i32 5
  %65 = load i32, ptr %64, align 4
  %66 = call i32 @get_typavgwidth(i32 noundef %62, i32 noundef %65)
  store i32 %66, ptr %8, align 4
  br label %67

67:                                               ; preds = %59, %50
  %68 = load ptr, ptr %4, align 8
  %69 = icmp ne ptr %68, null
  br i1 %69, label %70, label %76

70:                                               ; preds = %67
  %71 = load i32, ptr %8, align 4
  %72 = load ptr, ptr %4, align 8
  %73 = load i32, ptr %6, align 4
  %74 = sext i32 %73 to i64
  %75 = getelementptr inbounds i32, ptr %72, i64 %74
  store i32 %71, ptr %75, align 4
  br label %76

76:                                               ; preds = %70, %67
  %77 = load i32, ptr %8, align 4
  %78 = sext i32 %77 to i64
  %79 = load i64, ptr %5, align 8
  %80 = add i64 %79, %78
  store i64 %80, ptr %5, align 8
  store i32 0, ptr %9, align 4
  br label %81

81:                                               ; preds = %76, %41, %30
  call void @llvm.lifetime.end.p0(i64 4, ptr %8) #10
  call void @llvm.lifetime.end.p0(i64 8, ptr %7) #10
  %82 = load i32, ptr %9, align 4
  switch i32 %82, label %90 [
    i32 0, label %83
    i32 4, label %84
  ]

83:                                               ; preds = %81
  br label %84

84:                                               ; preds = %83, %81
  %85 = load i32, ptr %6, align 4
  %86 = add i32 %85, 1
  store i32 %86, ptr %6, align 4
  br label %10, !llvm.loop !23

87:                                               ; preds = %10
  %88 = load i64, ptr %5, align 8
  %89 = call i32 @clamp_width_est(i64 noundef %88)
  store i32 1, ptr %9, align 4
  call void @llvm.lifetime.end.p0(i64 4, ptr %6) #10
  call void @llvm.lifetime.end.p0(i64 8, ptr %5) #10
  ret i32 %89

90:                                               ; preds = %81
  unreachable
}