; Function Attrs: nounwind uwtable
define dso_local i32 @get_rel_data_width(ptr noundef readonly captures(none) %0, ptr noundef captures(address_is_null) %1) local_unnamed_addr #0 {
  %3 = getelementptr inbounds nuw i8, ptr %0, i64 56
  %4 = load ptr, ptr %3, align 8
  %5 = getelementptr inbounds nuw i8, ptr %4, i64 116
  %6 = load i16, ptr %5, align 4
  %.not30 = icmp slt i16 %6, 1
  br i1 %.not30, label %._crit_edge, label %.lr.ph

.lr.ph:                                           ; preds = %2
  %7 = getelementptr inbounds nuw i8, ptr %0, i64 64
  %.not29 = icmp eq ptr %1, null
  %8 = getelementptr inbounds nuw i8, ptr %0, i64 72
  br i1 %.not29, label %.lr.ph.split.us, label %.lr.ph.split

.lr.ph.split.us:                                  ; preds = %.lr.ph, %34
  %9 = phi ptr [ %35, %34 ], [ %4, %.lr.ph ]
  %indvars.iv36 = phi i64 [ %indvars.iv.next37, %34 ], [ 1, %.lr.ph ]
  %.02333.us = phi i64 [ %.1.us, %34 ], [ 0, %.lr.ph ]
  %10 = load ptr, ptr %7, align 8
  %11 = load i32, ptr %10, align 8
  %12 = sext i32 %11 to i64
  %13 = shl nsw i64 %12, 4
  %14 = getelementptr i8, ptr %10, i64 %13
  %15 = getelementptr i8, ptr %14, i64 24
  %16 = getelementptr %struct.FormData_pg_attribute, ptr %15, i64 %indvars.iv36
  %17 = getelementptr i8, ptr %16, i64 -9
  %18 = load i8, ptr %17, align 1, !range !4, !noundef !5
  %19 = trunc nuw i8 %18 to i1
  br i1 %19, label %34, label %20

20:                                               ; preds = %.lr.ph.split.us
  %21 = load i32, ptr %8, align 8
  %22 = trunc i64 %indvars.iv36 to i16
  %23 = tail call i32 @get_attavgwidth(i32 noundef %21, i16 noundef signext %22) #10
  %24 = icmp slt i32 %23, 1
  br i1 %24, label %25, label %31

25:                                               ; preds = %20
  %26 = getelementptr i8, ptr %16, i64 -32
  %27 = load i32, ptr %26, align 4
  %28 = getelementptr i8, ptr %16, i64 -24
  %29 = load i32, ptr %28, align 4
  %30 = tail call i32 @get_typavgwidth(i32 noundef %27, i32 noundef %29) #10
  br label %31

31:                                               ; preds = %25, %20
  %.0.us = phi i32 [ %30, %25 ], [ %23, %20 ]
  %32 = sext i32 %.0.us to i64
  %33 = add i64 %.02333.us, %32
  %.pre39 = load ptr, ptr %3, align 8
  br label %34

34:                                               ; preds = %31, %.lr.ph.split.us
  %35 = phi ptr [ %.pre39, %31 ], [ %9, %.lr.ph.split.us ]
  %.1.us = phi i64 [ %33, %31 ], [ %.02333.us, %.lr.ph.split.us ]
  %indvars.iv.next37 = add nuw nsw i64 %indvars.iv36, 1
  %36 = getelementptr inbounds nuw i8, ptr %35, i64 116
  %37 = load i16, ptr %36, align 4
  %38 = sext i16 %37 to i64
  %.not.us.not = icmp slt i64 %indvars.iv36, %38
  br i1 %.not.us.not, label %.lr.ph.split.us, label %._crit_edge, !llvm.loop !22

.lr.ph.split:                                     ; preds = %.lr.ph, %71
  %39 = phi ptr [ %72, %71 ], [ %4, %.lr.ph ]
  %indvars.iv = phi i64 [ %indvars.iv.next, %71 ], [ 1, %.lr.ph ]
  %.02333 = phi i64 [ %.1, %71 ], [ 0, %.lr.ph ]
  %40 = load ptr, ptr %7, align 8
  %41 = load i32, ptr %40, align 8
  %42 = sext i32 %41 to i64
  %43 = shl nsw i64 %42, 4
  %44 = getelementptr i8, ptr %40, i64 %43
  %45 = getelementptr i8, ptr %44, i64 24
  %46 = getelementptr %struct.FormData_pg_attribute, ptr %45, i64 %indvars.iv
  %47 = getelementptr i8, ptr %46, i64 -9
  %48 = load i8, ptr %47, align 1, !range !4, !noundef !5
  %49 = trunc nuw i8 %48 to i1
  br i1 %49, label %71, label %50

50:                                               ; preds = %.lr.ph.split
  %51 = getelementptr inbounds nuw i32, ptr %1, i64 %indvars.iv
  %52 = load i32, ptr %51, align 4
  %53 = icmp sgt i32 %52, 0
  br i1 %53, label %54, label %57

54:                                               ; preds = %50
  %55 = zext nneg i32 %52 to i64
  %56 = add i64 %.02333, %55
  br label %71

57:                                               ; preds = %50
  %58 = load i32, ptr %8, align 8
  %59 = trunc i64 %indvars.iv to i16
  %60 = tail call i32 @get_attavgwidth(i32 noundef %58, i16 noundef signext %59) #10
  %61 = icmp slt i32 %60, 1
  br i1 %61, label %62, label %68

62:                                               ; preds = %57
  %63 = getelementptr i8, ptr %46, i64 -32
  %64 = load i32, ptr %63, align 4
  %65 = getelementptr i8, ptr %46, i64 -24
  %66 = load i32, ptr %65, align 4
  %67 = tail call i32 @get_typavgwidth(i32 noundef %64, i32 noundef %66) #10
  br label %68

68:                                               ; preds = %62, %57
  %.0 = phi i32 [ %67, %62 ], [ %60, %57 ]
  store i32 %.0, ptr %51, align 4
  %69 = sext i32 %.0 to i64
  %70 = add i64 %.02333, %69
  %.pre = load ptr, ptr %3, align 8
  br label %71

71:                                               ; preds = %.lr.ph.split, %68, %54
  %72 = phi ptr [ %39, %54 ], [ %.pre, %68 ], [ %39, %.lr.ph.split ]
  %.1 = phi i64 [ %56, %54 ], [ %70, %68 ], [ %.02333, %.lr.ph.split ]
  %indvars.iv.next = add nuw nsw i64 %indvars.iv, 1
  %73 = getelementptr inbounds nuw i8, ptr %72, i64 116
  %74 = load i16, ptr %73, align 4
  %75 = sext i16 %74 to i64
  %.not.not = icmp slt i64 %indvars.iv, %75
  br i1 %.not.not, label %.lr.ph.split, label %._crit_edge, !llvm.loop !22

._crit_edge:                                      ; preds = %71, %34, %2
  %.023.lcssa = phi i64 [ 0, %2 ], [ %.1.us, %34 ], [ %.1, %71 ]
  %76 = tail call i32 @clamp_width_est(i64 noundef %.023.lcssa) #10
  ret i32 %76
}